; Function Attrs: inlinehint mustprogress nounwind uwtable
define internal fastcc void @"_ZN5arrow6FutureISt10shared_ptrINS_6BufferEEE20WrapResultOnComplete8CallbackINS4_14ThenOnCompleteIZNS_3ipc16ReadMessageAsyncElilPNS_2io16RandomAccessFileERKNS9_9IOContextEE3$_0NS4_17PassthruOnFailureISF_EEEEED2Ev"(ptr noundef nonnull readonly align 8 captures(none) dereferenceable(64) %0) unnamed_addr #10 align 2 personality ptr @__gxx_personality_v0 {
  %2 = getelementptr inbounds nuw i8, ptr %0, i64 56
  %3 = load ptr, ptr %2, align 8, !tbaa !14
  %.not.i.i.i.i = icmp eq ptr %3, null
  br i1 %.not.i.i.i.i, label %_ZN5arrow6FutureISt10shared_ptrINS_3ipc7MessageEEED2Ev.exit.i, label %4

4:                                                ; preds = %1
  %5 = getelementptr inbounds nuw i8, ptr %3, i64 8
  %6 = load atomic i64, ptr %5 acquire, align 8
  %7 = icmp eq i64 %6, 4294967297
  %8 = trunc i64 %6 to i32
  br i1 %7, label %9, label %17

9:                                                ; preds = %4
  store i32 0, ptr %5, align 8, !tbaa !16
  %10 = getelementptr inbounds nuw i8, ptr %3, i64 12
  store i32 0, ptr %10, align 4, !tbaa !19
  %11 = load ptr, ptr %3, align 8, !tbaa !20
  %12 = getelementptr inbounds nuw i8, ptr %11, i64 16
  %13 = load ptr, ptr %12, align 8
  tail call void %13(ptr noundef nonnull align 8 dereferenceable(16) %3) #29
  %14 = load ptr, ptr %3, align 8, !tbaa !20
  %15 = getelementptr inbounds nuw i8, ptr %14, i64 24
  %16 = load ptr, ptr %15, align 8
  tail call void %16(ptr noundef nonnull align 8 dereferenceable(16) %3) #29
  br label %_ZN5arrow6FutureISt10shared_ptrINS_3ipc7MessageEEED2Ev.exit.i

17:                                               ; preds = %4
  %18 = load i8, ptr @__libc_single_threaded, align 1, !tbaa !22
  %.not.i.i.i.i.i = icmp eq i8 %18, 0
  br i1 %.not.i.i.i.i.i, label %21, label %19

19:                                               ; preds = %17
  %20 = add nsw i32 %8, -1
  store i32 %20, ptr %5, align 4, !tbaa !23
  br label %_ZN9__gnu_cxx27__exchange_and_add_dispatchEPii.exit.i.i.i.i.i

21:                                               ; preds = %17
  %22 = atomicrmw volatile add ptr %5, i32 -1 acq_rel, align 4
  br label %_ZN9__gnu_cxx27__exchange_and_add_dispatchEPii.exit.i.i.i.i.i

_ZN9__gnu_cxx27__exchange_and_add_dispatchEPii.exit.i.i.i.i.i: ; preds = %21, %19
  %.0.i.i.i.i.i.i = phi i32 [ %8, %19 ], [ %22, %21 ]
  %23 = icmp eq i32 %.0.i.i.i.i.i.i, 1
  br i1 %23, label %24, label %_ZN5arrow6FutureISt10shared_ptrINS_3ipc7MessageEEED2Ev.exit.i, !prof !24

24:                                               ; preds = %_ZN9__gnu_cxx27__exchange_and_add_dispatchEPii.exit.i.i.i.i.i
  tail call void @_ZNSt16_Sp_counted_baseILN9__gnu_cxx12_Lock_policyE2EE24_M_release_last_use_coldEv(ptr noundef nonnull align 8 dereferenceable(16) %3) #29
  br label %_ZN5arrow6FutureISt10shared_ptrINS_3ipc7MessageEEED2Ev.exit.i

_ZN5arrow6FutureISt10shared_ptrINS_3ipc7MessageEEED2Ev.exit.i: ; preds = %24, %_ZN9__gnu_cxx27__exchange_and_add_dispatchEPii.exit.i.i.i.i.i, %9, %1
  %25 = getelementptr inbounds nuw i8, ptr %0, i64 16
  %.val.i = load ptr, ptr %25, align 8, !tbaa !14
  %.not.i.i.i1.i = icmp eq ptr %.val.i, null
  br i1 %.not.i.i.i1.i, label %"_ZN5arrow6FutureISt10shared_ptrINS_6BufferEEE14ThenOnCompleteIZNS_3ipc16ReadMessageAsyncElilPNS_2io16RandomAccessFileERKNS7_9IOContextEE3$_0NS4_17PassthruOnFailureISD_EEED2Ev.exit", label %26

26:                                               ; preds = %_ZN5arrow6FutureISt10shared_ptrINS_3ipc7MessageEEED2Ev.exit.i
  %27 = getelementptr inbounds nuw i8, ptr %.val.i, i64 8
  %28 = load atomic i64, ptr %27 acquire, align 8
  %29 = icmp eq i64 %28, 4294967297
  %30 = trunc i64 %28 to i32
  br i1 %29, label %31, label %39

31:                                               ; preds = %26
  store i32 0, ptr %27, align 8, !tbaa !16
  %32 = getelementptr inbounds nuw i8, ptr %.val.i, i64 12
  store i32 0, ptr %32, align 4, !tbaa !19
  %33 = load ptr, ptr %.val.i, align 8, !tbaa !20
  %34 = getelementptr inbounds nuw i8, ptr %33, i64 16
  %35 = load ptr, ptr %34, align 8
  tail call void %35(ptr noundef nonnull align 8 dereferenceable(16) %.val.i) #29
  %36 = load ptr, ptr %.val.i, align 8, !tbaa !20
  %37 = getelementptr inbounds nuw i8, ptr %36, i64 24
  %38 = load ptr, ptr %37, align 8
  tail call void %38(ptr noundef nonnull align 8 dereferenceable(16) %.val.i) #29
  br label %"_ZN5arrow6FutureISt10shared_ptrINS_6BufferEEE14ThenOnCompleteIZNS_3ipc16ReadMessageAsyncElilPNS_2io16RandomAccessFileERKNS7_9IOContextEE3$_0NS4_17PassthruOnFailureISD_EEED2Ev.exit"

39:                                               ; preds = %26
  %40 = load i8, ptr @__libc_single_threaded, align 1, !tbaa !22
  %.not.i.i.i.i2.i = icmp eq i8 %40, 0
  br i1 %.not.i.i.i.i2.i, label %43, label %41

41:                                               ; preds = %39
  %42 = add nsw i32 %30, -1
  store i32 %42, ptr %27, align 4, !tbaa !23
  br label %_ZN9__gnu_cxx27__exchange_and_add_dispatchEPii.exit.i.i.i.i3.i

43:                                               ; preds = %39
  %44 = atomicrmw volatile add ptr %27, i32 -1 acq_rel, align 4
  br label %_ZN9__gnu_cxx27__exchange_and_add_dispatchEPii.exit.i.i.i.i3.i

_ZN9__gnu_cxx27__exchange_and_add_dispatchEPii.exit.i.i.i.i3.i: ; preds = %43, %41
  %.0.i.i.i.i.i4.i = phi i32 [ %30, %41 ], [ %44, %43 ]
  %45 = icmp eq i32 %.0.i.i.i.i.i4.i, 1
  br i1 %45, label %46, label %"_ZN5arrow6FutureISt10shared_ptrINS_6BufferEEE14ThenOnCompleteIZNS_3ipc16ReadMessageAsyncElilPNS_2io16RandomAccessFileERKNS7_9IOContextEE3$_0NS4_17PassthruOnFailureISD_EEED2Ev.exit", !prof !24

46:                                               ; preds = %_ZN9__gnu_cxx27__exchange_and_add_dispatchEPii.exit.i.i.i.i3.i
  tail call void @_ZNSt16_Sp_counted_baseILN9__gnu_cxx12_Lock_policyE2EE24_M_release_last_use_coldEv(ptr noundef nonnull align 8 dereferenceable(16) %.val.i) #29
  br label %"_ZN5arrow6FutureISt10shared_ptrINS_6BufferEEE14ThenOnCompleteIZNS_3ipc16ReadMessageAsyncElilPNS_2io16RandomAccessFileERKNS7_9IOContextEE3$_0NS4_17PassthruOnFailureISD_EEED2Ev.exit"

"_ZN5arrow6FutureISt10shared_ptrINS_6BufferEEE14ThenOnCompleteIZNS_3ipc16ReadMessageAsyncElilPNS_2io16RandomAccessFileERKNS7_9IOContextEE3$_0NS4_17PassthruOnFailureISD_EEED2Ev.exit": ; preds = %_ZN5arrow6FutureISt10shared_ptrINS_3ipc7MessageEEED2Ev.exit.i, %31, %_ZN9__gnu_cxx27__exchange_and_add_dispatchEPii.exit.i.i.i.i3.i, %46
  ret void
}